; Function Attrs: mustprogress uwtable
define dso_local void @_ZN10ImDrawList14AddBezierCubicERK6ImVec2S2_S2_S2_jfi(ptr noundef nonnull align 8 captures(none) dereferenceable(200) %0, ptr noundef nonnull readonly align 4 captures(none) dereferenceable(8) %1, ptr noundef nonnull readonly align 4 captures(none) dereferenceable(8) %2, ptr noundef nonnull readonly align 4 captures(none) dereferenceable(8) %3, ptr noundef nonnull readonly align 4 captures(none) dereferenceable(8) %4, i32 noundef %5, float noundef %6, i32 noundef %7) local_unnamed_addr #9 align 2 {
  %9 = icmp ult i32 %5, 16777216
  br i1 %9, label %44, label %10

10:                                               ; preds = %8
  %11 = getelementptr inbounds nuw i8, ptr %0, i64 80
  %12 = load i32, ptr %11, align 8, !tbaa !62
  %13 = getelementptr inbounds nuw i8, ptr %0, i64 84
  %14 = load i32, ptr %13, align 4, !tbaa !60
  %15 = icmp eq i32 %12, %14
  br i1 %15, label %16, label %._ZN8ImVectorI6ImVec2E7reserveEi.exit_crit_edge.i.i

._ZN8ImVectorI6ImVec2E7reserveEi.exit_crit_edge.i.i: ; preds = %10
  %.phi.trans.insert.i.i = getelementptr inbounds nuw i8, ptr %0, i64 88
  %.pre.i.i = load ptr, ptr %.phi.trans.insert.i.i, align 8, !tbaa !61
  br label %_ZN10ImDrawList10PathLineToERK6ImVec2.exit

16:                                               ; preds = %10
  %17 = add nsw i32 %12, 1
  %.not.i.i.i = icmp eq i32 %12, 0
  br i1 %.not.i.i.i, label %_ZNK8ImVectorI6ImVec2E14_grow_capacityEi.exit.i.i, label %18

18:                                               ; preds = %16
  %19 = sdiv i32 %12, 2
  %20 = add nsw i32 %19, %12
  br label %_ZNK8ImVectorI6ImVec2E14_grow_capacityEi.exit.i.i

_ZNK8ImVectorI6ImVec2E14_grow_capacityEi.exit.i.i: ; preds = %18, %16
  %21 = phi i32 [ %20, %18 ], [ 8, %16 ]
  %22 = tail call noundef i32 @llvm.smax.i32(i32 %21, i32 %17)
  %23 = sext i32 %22 to i64
  %24 = shl nsw i64 %23, 3
  %25 = tail call noundef ptr @_ZN5ImGui8MemAllocEm(i64 noundef %24)
  %26 = getelementptr inbounds nuw i8, ptr %0, i64 88
  %27 = load ptr, ptr %26, align 8, !tbaa !61
  %.not6.i.i.i = icmp eq ptr %27, null
  br i1 %.not6.i.i.i, label %33, label %28

28:                                               ; preds = %_ZNK8ImVectorI6ImVec2E14_grow_capacityEi.exit.i.i
  %29 = load i32, ptr %11, align 8, !tbaa !62
  %30 = sext i32 %29 to i64
  %31 = shl nsw i64 %30, 3
  tail call void @llvm.memcpy.p0.p0.i64(ptr align 4 %25, ptr nonnull align 4 %27, i64 %31, i1 false)
  %32 = load ptr, ptr %26, align 8, !tbaa !61
  tail call void @_ZN5ImGui7MemFreeEPv(ptr noundef %32)
  br label %33

33:                                               ; preds = %28, %_ZNK8ImVectorI6ImVec2E14_grow_capacityEi.exit.i.i
  store ptr %25, ptr %26, align 8, !tbaa !61
  store i32 %22, ptr %13, align 4, !tbaa !60
  %.pre3.i.i = load i32, ptr %11, align 8, !tbaa !62
  br label %_ZN10ImDrawList10PathLineToERK6ImVec2.exit

_ZN10ImDrawList10PathLineToERK6ImVec2.exit:       ; preds = %._ZN8ImVectorI6ImVec2E7reserveEi.exit_crit_edge.i.i, %33
  %34 = phi i32 [ %12, %._ZN8ImVectorI6ImVec2E7reserveEi.exit_crit_edge.i.i ], [ %.pre3.i.i, %33 ]
  %35 = phi ptr [ %.pre.i.i, %._ZN8ImVectorI6ImVec2E7reserveEi.exit_crit_edge.i.i ], [ %25, %33 ]
  %36 = sext i32 %34 to i64
  %37 = getelementptr inbounds %struct.ImVec2, ptr %35, i64 %36
  %38 = load i64, ptr %1, align 4
  store i64 %38, ptr %37, align 4
  %39 = load i32, ptr %11, align 8, !tbaa !62
  %40 = add nsw i32 %39, 1
  store i32 %40, ptr %11, align 8, !tbaa !62
  tail call void @_ZN10ImDrawList22PathBezierCubicCurveToERK6ImVec2S2_S2_i(ptr noundef nonnull align 8 dereferenceable(200) %0, ptr noundef nonnull align 4 dereferenceable(8) %2, ptr noundef nonnull align 4 dereferenceable(8) %3, ptr noundef nonnull align 4 dereferenceable(8) %4, i32 noundef %7)
  %41 = getelementptr inbounds nuw i8, ptr %0, i64 88
  %42 = load ptr, ptr %41, align 8, !tbaa !125
  %43 = load i32, ptr %11, align 8, !tbaa !124
  tail call void @_ZN10ImDrawList11AddPolylineEPK6ImVec2ijif(ptr noundef nonnull align 8 dereferenceable(200) %0, ptr noundef %42, i32 noundef %43, i32 noundef %5, i32 noundef 0, float noundef %6)
  store i32 0, ptr %11, align 8, !tbaa !124
  br label %44

44:                                               ; preds = %8, %_ZN10ImDrawList10PathLineToERK6ImVec2.exit
  ret void
}